; Function Attrs: nounwind uwtable
define hidden noundef i32 @dissect_diameter_3gpp_core_network_restrictions(ptr noundef %0, ptr readnone captures(none) %1, ptr noundef %2, ptr noundef readonly %3) #0 {
  %.not = icmp eq ptr %3, null
  br i1 %.not, label %proto_item_set_hidden.exit, label %5

5:                                                ; preds = %4
  %6 = getelementptr inbounds nuw i8, ptr %3, i64 32
  %7 = load ptr, ptr %6, align 8
  %.not.i = icmp eq ptr %7, null
  br i1 %.not.i, label %proto_item_set_hidden.exit, label %8

8:                                                ; preds = %5
  %9 = getelementptr inbounds nuw i8, ptr %7, i64 32
  %10 = load ptr, ptr %9, align 8
  %.not5.i = icmp eq ptr %10, null
  br i1 %.not5.i, label %proto_item_set_hidden.exit, label %11

11:                                               ; preds = %8
  %12 = getelementptr inbounds nuw i8, ptr %10, i64 28
  %13 = load i32, ptr %12, align 4
  %14 = or i32 %13, 1
  store i32 %14, ptr %12, align 4
  br label %proto_item_set_hidden.exit

proto_item_set_hidden.exit:                       ; preds = %11, %8, %5, %4
  %15 = load i32, ptr @hf_diameter_3gpp_core_network_restrictions, align 4
  %16 = load i32, ptr @ett_diameter_3gpp_core_network_restrictions, align 4
  %17 = tail call ptr @proto_tree_add_bitmask_with_flags(ptr noundef %2, ptr noundef %0, i32 noundef 0, i32 noundef %15, i32 noundef %16, ptr noundef nonnull @dissect_diameter_3gpp_core_network_restrictions.flags, i32 noundef 0, i32 noundef 1) #3
  ret i32 4
}